target datalayout = "e-m:e-p270:32:32-p271:32:32-p272:64:64-i64:64-i128:128-f80:128-n8:16:32:64-S128"
target triple = "x86_64-pc-linux-gnu"

%struct.sockaddr = type { i16, [14 x i8] }
%struct.in_addr = type { i32 }
%struct.sockaddr_in = type { i16, i16, %struct.in_addr, [8 x i8] }
%struct.ip_mreq = type { %struct.in_addr, %struct.in_addr }
%struct.ipv6_mreq = type { %struct.in6_addr, i32 }
%struct.in6_addr = type { %union.anon }
%union.anon = type { [4 x i32] }
%struct.sockaddr_in6 = type { i16, i16, i32, %struct.in6_addr, i32 }

@.str.40 = private unnamed_addr constant [30 x i8] c"setsockopt(IP_ADD_MEMBERSHIP)\00", align 1
@.str.41 = private unnamed_addr constant [32 x i8] c"setsockopt(IPV6_ADD_MEMBERSHIP)\00", align 1

; Function Attrs: nounwind uwtable
define internal i32 @udp_join_multicast_group(i32 noundef %0, ptr noundef %1, ptr noundef %2, ptr noundef %3) #0 {
  %5 = alloca i32, align 4
  %6 = alloca i32, align 4
  %7 = alloca ptr, align 8
  %8 = alloca ptr, align 8
  %9 = alloca ptr, align 8
  %10 = alloca %struct.ip_mreq, align 4
  %11 = alloca i32, align 4
  %12 = alloca %struct.ipv6_mreq, align 4
  store i32 %0, ptr %6, align 4, !tbaa !20
  store ptr %1, ptr %7, align 8, !tbaa !81
  store ptr %2, ptr %8, align 8, !tbaa !81
  store ptr %3, ptr %9, align 8, !tbaa !82
  %13 = load ptr, ptr %7, align 8, !tbaa !81
  %14 = getelementptr inbounds nuw %struct.sockaddr, ptr %13, i32 0, i32 0
  %15 = load i16, ptr %14, align 2, !tbaa !75
  %16 = zext i16 %15 to i32
  %17 = icmp eq i32 %16, 2
  br i1 %17, label %18, label %47

18:                                               ; preds = %4
  call void @llvm.lifetime.start.p0(i64 8, ptr %10) #9
  %19 = load ptr, ptr %7, align 8, !tbaa !81
  %20 = getelementptr inbounds nuw %struct.sockaddr_in, ptr %19, i32 0, i32 2
  %21 = getelementptr inbounds nuw %struct.in_addr, ptr %20, i32 0, i32 0
  %22 = load i32, ptr %21, align 4, !tbaa !87
  %23 = getelementptr inbounds nuw %struct.ip_mreq, ptr %10, i32 0, i32 0
  %24 = getelementptr inbounds nuw %struct.in_addr, ptr %23, i32 0, i32 0
  store i32 %22, ptr %24, align 4, !tbaa !96
  %25 = load ptr, ptr %8, align 8, !tbaa !81
  %26 = icmp ne ptr %25, null
  br i1 %26, label %27, label %31

27:                                               ; preds = %18
  %28 = getelementptr inbounds nuw %struct.ip_mreq, ptr %10, i32 0, i32 1
  %29 = load ptr, ptr %8, align 8, !tbaa !81
  %30 = getelementptr inbounds nuw %struct.sockaddr_in, ptr %29, i32 0, i32 2
  call void @llvm.memcpy.p0.p0.i64(ptr align 4 %28, ptr align 4 %30, i64 4, i1 false), !tbaa.struct !92
  br label %34

31:                                               ; preds = %18
  %32 = getelementptr inbounds nuw %struct.ip_mreq, ptr %10, i32 0, i32 1
  %33 = getelementptr inbounds nuw %struct.in_addr, ptr %32, i32 0, i32 0
  store i32 0, ptr %33, align 4, !tbaa !98
  br label %34

34:                                               ; preds = %31, %27
  %35 = load i32, ptr %6, align 4, !tbaa !20
  %36 = call i32 @setsockopt(i32 noundef %35, i32 noundef 0, i32 noundef 35, ptr noundef %10, i32 noundef 8) #9
  %37 = icmp slt i32 %36, 0
  br i1 %37, label %38, label %43

38:                                               ; preds = %34
  %39 = load ptr, ptr %9, align 8, !tbaa !82
  call void @ff_log_net_error(ptr noundef %39, i32 noundef 16, ptr noundef @.str.40)
  %40 = call ptr @__errno_location() #11
  %41 = load i32, ptr %40, align 4, !tbaa !20
  %42 = sub nsw i32 0, %41
  store i32 %42, ptr %5, align 4
  store i32 1, ptr %11, align 4
  br label %44

43:                                               ; preds = %34
  store i32 0, ptr %11, align 4
  br label %44

44:                                               ; preds = %43, %38
  call void @llvm.lifetime.end.p0(i64 8, ptr %10) #9
  %45 = load i32, ptr %11, align 4
  switch i32 %45, label %73 [
    i32 0, label %46
    i32 1, label %71
  ]

46:                                               ; preds = %44
  br label %47

47:                                               ; preds = %46, %4
  %48 = load ptr, ptr %7, align 8, !tbaa !81
  %49 = getelementptr inbounds nuw %struct.sockaddr, ptr %48, i32 0, i32 0
  %50 = load i16, ptr %49, align 2, !tbaa !75
  %51 = zext i16 %50 to i32
  %52 = icmp eq i32 %51, 10
  br i1 %52, label %53, label %70

53:                                               ; preds = %47
  call void @llvm.lifetime.start.p0(i64 20, ptr %12) #9
  %54 = getelementptr inbounds nuw %struct.ipv6_mreq, ptr %12, i32 0, i32 0
  %55 = load ptr, ptr %7, align 8, !tbaa !81
  %56 = getelementptr inbounds nuw %struct.sockaddr_in6, ptr %55, i32 0, i32 3
  call void @llvm.memcpy.p0.p0.i64(ptr align 4 %54, ptr align 4 %56, i64 16, i1 false)
  %57 = getelementptr inbounds nuw %struct.ipv6_mreq, ptr %12, i32 0, i32 1
  store i32 0, ptr %57, align 4, !tbaa !99
  %58 = load i32, ptr %6, align 4, !tbaa !20
  %59 = call i32 @setsockopt(i32 noundef %58, i32 noundef 41, i32 noundef 20, ptr noundef %12, i32 noundef 20) #9
  %60 = icmp slt i32 %59, 0
  br i1 %60, label %61, label %66

61:                                               ; preds = %53
  %62 = load ptr, ptr %9, align 8, !tbaa !82
  call void @ff_log_net_error(ptr noundef %62, i32 noundef 16, ptr noundef @.str.41)
  %63 = call ptr @__errno_location() #11
  %64 = load i32, ptr %63, align 4, !tbaa !20
  %65 = sub nsw i32 0, %64
  store i32 %65, ptr %5, align 4
  store i32 1, ptr %11, align 4
  br label %67

66:                                               ; preds = %53
  store i32 0, ptr %11, align 4
  br label %67

67:                                               ; preds = %66, %61
  call void @llvm.lifetime.end.p0(i64 20, ptr %12) #9
  %68 = load i32, ptr %11, align 4
  switch i32 %68, label %73 [
    i32 0, label %69
    i32 1, label %71
  ]

69:                                               ; preds = %67
  br label %70

70:                                               ; preds = %69, %47
  store i32 0, ptr %5, align 4
  br label %71

71:                                               ; preds = %70, %67, %44
  %72 = load i32, ptr %5, align 4
  ret i32 %72

73:                                               ; preds = %67, %44
  unreachable
}