; Function Attrs: nounwind uwtable
define internal fastcc range(i32 -2147483647, -2147483648) i32 @udp_join_multicast_group(i32 noundef range(i32 0, -2147483648) %0, ptr noundef readonly captures(none) %1, ptr noundef readonly captures(address_is_null) %2, ptr noundef %3) unnamed_addr #0 {
  %5 = alloca %struct.ip_mreq, align 4
  %6 = alloca %struct.ipv6_mreq, align 4
  %7 = load i16, ptr %1, align 2, !tbaa !49
  %8 = icmp eq i16 %7, 2
  br i1 %8, label %9, label %23

9:                                                ; preds = %4
  call void @llvm.lifetime.start.p0(i64 8, ptr nonnull %5) #11
  %10 = getelementptr inbounds nuw i8, ptr %1, i64 4
  %11 = load i32, ptr %10, align 4, !tbaa !71
  store i32 %11, ptr %5, align 4, !tbaa !74
  %.not = icmp eq ptr %2, null
  br i1 %.not, label %15, label %12

12:                                               ; preds = %9
  %13 = getelementptr inbounds nuw i8, ptr %2, i64 4
  %14 = load i32, ptr %13, align 4, !tbaa !15
  br label %15

15:                                               ; preds = %9, %12
  %.sink = phi i32 [ %14, %12 ], [ 0, %9 ]
  %16 = getelementptr inbounds nuw i8, ptr %5, i64 4
  store i32 %.sink, ptr %16, align 4, !tbaa !15
  %17 = call i32 @setsockopt(i32 noundef %0, i32 noundef 0, i32 noundef 35, ptr noundef nonnull %5, i32 noundef 8) #11
  %18 = icmp slt i32 %17, 0
  br i1 %18, label %19, label %.thread

.thread:                                          ; preds = %15
  call void @llvm.lifetime.end.p0(i64 8, ptr nonnull %5) #11
  %.pr = load i16, ptr %1, align 2, !tbaa !49
  br label %23

19:                                               ; preds = %15
  call void @ff_log_net_error(ptr noundef %3, i32 noundef 16, ptr noundef nonnull @.str.40) #11
  %20 = tail call ptr @__errno_location() #13
  %21 = load i32, ptr %20, align 4, !tbaa !15
  %22 = sub nsw i32 0, %21
  call void @llvm.lifetime.end.p0(i64 8, ptr nonnull %5) #11
  br label %35

23:                                               ; preds = %.thread, %4
  %24 = phi i16 [ %.pr, %.thread ], [ %7, %4 ]
  %25 = icmp eq i16 %24, 10
  br i1 %25, label %26, label %35

26:                                               ; preds = %23
  call void @llvm.lifetime.start.p0(i64 20, ptr nonnull %6) #11
  %27 = getelementptr inbounds nuw i8, ptr %1, i64 8
  call void @llvm.memcpy.p0.p0.i64(ptr noundef nonnull align 4 dereferenceable(16) %6, ptr noundef nonnull align 4 dereferenceable(16) %27, i64 16, i1 false)
  %28 = getelementptr inbounds nuw i8, ptr %6, i64 16
  store i32 0, ptr %28, align 4, !tbaa !76
  %29 = call i32 @setsockopt(i32 noundef %0, i32 noundef 41, i32 noundef 20, ptr noundef nonnull %6, i32 noundef 20) #11
  %30 = icmp slt i32 %29, 0
  br i1 %30, label %31, label %.thread19

.thread19:                                        ; preds = %26
  call void @llvm.lifetime.end.p0(i64 20, ptr nonnull %6) #11
  br label %35

31:                                               ; preds = %26
  call void @ff_log_net_error(ptr noundef %3, i32 noundef 16, ptr noundef nonnull @.str.41) #11
  %32 = tail call ptr @__errno_location() #13
  %33 = load i32, ptr %32, align 4, !tbaa !15
  %34 = sub nsw i32 0, %33
  call void @llvm.lifetime.end.p0(i64 20, ptr nonnull %6) #11
  br label %35

35:                                               ; preds = %23, %.thread19, %31, %19
  %.2 = phi i32 [ %22, %19 ], [ %34, %31 ], [ 0, %.thread19 ], [ 0, %23 ]
  ret i32 %.2
}